Certificate:
    Data:
        Version: 3 (0x2)
        Serial Number: 4096 (0x1000)
        Signature Algorithm: sha1WithRSAEncryption
        Issuer: CN=452 Certificates, ST=CA, C=US/emailAddress=452project@csu.fullerton.edu, O=California State University Fullerton, OU=CPSC 452
        Validity
            Not Before: May 11 01:02:03 2023 GMT
            Not After : May  9 01:02:03 2028 GMT
        Subject: CN=fourfiftytwo.local, ST=CA, C=US/emailAddress=admin@fourfiftytwo.local, O=Four Fifty Two, OU=Four Fifty Two Apache
        Subject Public Key Info:
            Public Key Algorithm: rsaEncryption
                RSA Public-Key: (1024 bit)
                Modulus:
                    00:db:e8:7c:90:94:ce:37:bd:e5:4e:48:27:80:9c:
                    ec:9f:82:5a:21:77:06:70:73:11:94:85:1d:6b:81:
                    04:a6:5d:73:cd:fc:74:ac:3a:04:62:e0:e2:4e:9b:
                    24:d4:40:c0:ca:cb:dc:f4:2d:14:e0:a4:b6:67:5f:
                    a2:b8:80:b0:9d:9c:93:3b:51:c8:2c:f6:53:42:ba:
                    ad:b6:f1:12:cc:6f:93:dd:a3:7e:4a:7d:bf:d4:c2:
                    34:55:29:1c:1d:00:7a:82:38:e6:1d:10:f5:f4:89:
                    92:d3:71:c9:66:ce:c3:a1:9c:2a:b6:4e:15:3a:19:
                    60:66:cb:26:5c:40:df:4b:6b
                Exponent: 65537 (0x10001)
        X509v3 extensions:
            X509v3 Basic Constraints: 
                CA:FALSE
            X509v3 Key Usage: 
                Digital Signature, Non Repudiation, Key Encipherment
            X509v3 Subject Alternative Name: 
                DNS:fourfiftytwo.local
    Signature Algorithm: sha1WithRSAEncryption
         5d:ef:7c:b7:d4:84:6f:d0:81:31:bb:d6:58:9a:ca:47:4a:f1:
         6d:e9:02:25:60:25:43:7e:5a:0e:9f:a0:9f:be:04:90:c7:47:
         15:d8:9d:f1:4b:94:fe:e1:ed:6d:e9:1a:5e:db:b4:a7:82:04:
         14:be:bc:66:88:1a:59:62:9b:81:47:70:5c:48:01:6d:44:ba:
         f3:de:31:b5:0f:90:f8:1b:db:11:e8:f4:53:13:64:86:a2:49:
         1b:cb:13:bd:da:94:9a:05:27:8f:cf:4e:13:04:2e:e2:78:d5:
         f3:3d:ae:f9:c0:09:7c:9d:e1:4d:78:ae:f9:17:8b:1f:06:8a:
         9e:cf:57:d4:37:59:7b:c0:f8:5c:2e:dc:af:35:a6:f0:80:93:
         73:b3:30:fd:d2:11:41:ce:20:96:01:39:20:a0:e2:f5:00:1c:
         52:d0:aa:2c:2b:fc:22:03:4e:f1:cf:20:40:f4:0c:ed:13:82:
         08:12:ea:67:b2:30:55:cb:37:15:85:6d:d5:2b:d2:e8:85:63:
         99:ef:64:a5:1a:3b:d2:a9:68:cd:ed:fb:03:aa:0f:11:f3:75:
         72:28:ae:34:6b:53:e0:f0:7f:24:cf:1a:04:3a:82:9b:70:73:
         c2:f3:7d:46:c0:08:48:38:fc:7c:20:77:e4:b6:4f:32:35:bf:
         62:ff:7f:38
-----BEGIN CERTIFICATE-----
MIIDcTCCAlmgAwIBAgICEAAwDQYJKoZIhvcNAQEFBQAwgaUxGTAXBgNVBAMMEDQ1
MiBDZXJ0aWZpY2F0ZXMxCzAJBgNVBAgMAkNBMQswCQYDVQQGEwJVUzErMCkGCSqG
SIb3DQEJARYcNDUycHJvamVjdEBjc3UuZnVsbGVydG9uLmVkdTEuMCwGA1UECgwl
Q2FsaWZvcm5pYSBTdGF0ZSBVbml2ZXJzaXR5IEZ1bGxlcnRvbjERMA8GA1UECwwI
Q1BTQyA0NTIwHhcNMjMwNTExMDEwMjAzWhcNMjgwNTA5MDEwMjAzWjCBmTEbMBkG
A1UEAwwSZm91cmZpZnR5dHdvLmxvY2FsMQswCQYDVQQIDAJDQTELMAkGA1UEBhMC
VVMxJzAlBgkqhkiG9w0BCQEWGGFkbWluQGZvdXJmaWZ0eXR3by5sb2NhbDEXMBUG
A1UECgwORm91ciBGaWZ0eSBUd28xHjAcBgNVBAsMFUZvdXIgRmlmdHkgVHdvIEFw
YWNoZTCBnzANBgkqhkiG9w0BAQEFAAOBjQAwgYkCgYEA2+h8kJTON73lTkgngJzs
n4JaIXcGcHMRlIUda4EEpl1zzfx0rDoEYuDiTpsk1EDAysvc9C0U4KS2Z1+iuICw
nZyTO1HILPZTQrqttvESzG+T3aN+Sn2/1MI0VSkcHQB6gjjmHRD19ImS03HJZs7D
oZwqtk4VOhlgZssmXEDfS2sCAwEAAaM5MDcwCQYDVR0TBAIwADALBgNVHQ8EBAMC
BeAwHQYDVR0RBBYwFIISZm91cmZpZnR5dHdvLmxvY2FsMA0GCSqGSIb3DQEBBQUA
A4IBAQBd73y31IRv0IExu9ZYmspHSvFt6QIlYCVDfloOn6CfvgSQx0cV2J3xS5T+
4e1t6Rpe27SnggQUvrxmiBpZYpuBR3BcSAFtRLrz3jG1D5D4G9sR6PRTE2SGokkb
yxO92pSaBSePz04TBC7ieNXzPa75wAl8neFNeK75F4sfBoqez1fUN1l7wPhcLtyv
NabwgJNzszD90hFBziCWATkgoOL1ABxS0KosK/wiA07xzyBA9AztE4IIEupnsjBV
yzcVhW3VK9LohWOZ72SlGjvSqWjN7fsDqg8R83VyKK40a1Pg8H8kzxoEOoKbcHPC
831GwAhIOPx8IHfktk8yNb9i/384
-----END CERTIFICATE-----
