Certificate:
    Data:
        Version: 3 (0x2)
        Serial Number:
            fd:45:c8:96:9c:db:da:36:22:f6:53:a5:1d:63:1d:eb
        Signature Algorithm: ecdsa-with-SHA256
        Issuer: CN=cn_KwEBz0Ogcz18pqJ0
        Validity
            Not Before: May  3 21:18:24 2023 GMT
            Not After : Aug  5 21:18:24 2025 GMT
        Subject: CN=server_xyvXr1nCPma9jddg
        Subject Public Key Info:
            Public Key Algorithm: id-ecPublicKey
                Public-Key: (256 bit)
                pub:
                    04:aa:7c:4a:53:95:d3:1b:54:4d:a2:e3:f4:1a:31:
                    3f:ff:ae:97:95:57:3f:4e:75:a4:b3:20:9d:5f:09:
                    ee:10:42:37:dd:07:4c:d1:ec:06:f1:e2:e2:b6:fa:
                    83:fe:3c:16:de:d7:94:a6:71:ca:6d:cc:4c:e8:e0:
                    95:41:0d:3e:16
                ASN1 OID: prime256v1
                NIST CURVE: P-256
        X509v3 extensions:
            X509v3 Basic Constraints: 
                CA:FALSE
            X509v3 Subject Key Identifier: 
                93:1A:3E:FF:79:04:4D:BA:3F:59:16:7E:77:49:9A:F5:F7:31:98:C0
            X509v3 Authority Key Identifier: 
                keyid:04:68:76:73:5A:48:CC:E4:CB:83:5C:0B:37:5D:CC:11:81:36:C7:08
                DirName:/CN=cn_KwEBz0Ogcz18pqJ0
                serial:35:A3:B2:54:60:D2:ED:4D:CA:83:6F:44:4F:CC:B3:6B:59:4A:06:20

            X509v3 Extended Key Usage: 
                TLS Web Server Authentication
            X509v3 Key Usage: 
                Digital Signature, Key Encipherment
            X509v3 Subject Alternative Name: 
                DNS:server_xyvXr1nCPma9jddg
    Signature Algorithm: ecdsa-with-SHA256
         30:45:02:21:00:eb:ba:86:5b:1c:bc:8d:ae:19:48:40:e2:3b:
         27:e1:a0:b6:e1:3b:29:9f:17:82:f7:0d:29:a5:c0:aa:68:83:
         4d:02:20:3d:88:7d:56:d2:43:2a:e9:05:21:fa:a2:b7:be:e5:
         d0:8f:4d:bc:a1:4d:b8:4e:e8:f8:63:92:93:84:6d:37:8d
-----BEGIN CERTIFICATE-----
MIICDjCCAbSgAwIBAgIRAP1FyJac29o2IvZTpR1jHeswCgYIKoZIzj0EAwIwHjEc
MBoGA1UEAwwTY25fS3dFQnowT2djejE4cHFKMDAeFw0yMzA1MDMyMTE4MjRaFw0y
NTA4MDUyMTE4MjRaMCIxIDAeBgNVBAMMF3NlcnZlcl94eXZYcjFuQ1BtYTlqZGRn
MFkwEwYHKoZIzj0CAQYIKoZIzj0DAQcDQgAEqnxKU5XTG1RNouP0GjE//66XlVc/
TnWksyCdXwnuEEI33QdM0ewG8eLitvqD/jwW3teUpnHKbcxM6OCVQQ0+FqOBzjCB
yzAJBgNVHRMEAjAAMB0GA1UdDgQWBBSTGj7/eQRNuj9ZFn53SZr19zGYwDBZBgNV
HSMEUjBQgBQEaHZzWkjM5MuDXAs3XcwRgTbHCKEipCAwHjEcMBoGA1UEAwwTY25f
S3dFQnowT2djejE4cHFKMIIUNaOyVGDS7U3Kg29ET8yza1lKBiAwEwYDVR0lBAww
CgYIKwYBBQUHAwEwCwYDVR0PBAQDAgWgMCIGA1UdEQQbMBmCF3NlcnZlcl94eXZY
cjFuQ1BtYTlqZGRnMAoGCCqGSM49BAMCA0gAMEUCIQDruoZbHLyNrhlIQOI7J+Gg
tuE7KZ8XgvcNKaXAqmiDTQIgPYh9VtJDKukFIfqit77l0I9NvKFNuE7o+GOSk4Rt
N40=
-----END CERTIFICATE-----
