Certificate:
    Data:
        Version: 3 (0x2)
        Serial Number: 4099 (0x1003)
        Signature Algorithm: sha1WithRSAEncryption
        Issuer: CN=452 Certificates, ST=CA, C=US/emailAddress=452project@csu.fullerton.edu, O=California State University Fullerton, OU=CPSC 452
        Validity
            Not Before: May 12 01:08:31 2023 GMT
            Not After : May 10 01:08:31 2028 GMT
        Subject: CN=fourfiftytwo.local, ST=CA, C=US/emailAddress=admin@fourfiftytwo.local, O=Four Fifty Two, OU=Four Fifty Two Apache
        Subject Public Key Info:
            Public Key Algorithm: rsaEncryption
                RSA Public-Key: (2048 bit)
                Modulus:
                    00:d7:95:94:e2:b1:5b:29:ec:ab:58:67:5d:d9:75:
                    6c:79:4c:4e:38:d6:2d:c9:6b:97:c9:8c:2e:6e:68:
                    ab:53:36:8e:55:35:d8:8f:e6:4c:ee:78:41:f4:2f:
                    d7:40:98:43:17:fc:4c:d0:d1:0d:9b:9f:2e:a7:10:
                    73:55:29:0f:c7:d3:1b:6f:70:b0:e5:c7:7c:41:fc:
                    aa:8a:74:ea:96:e9:ee:d0:16:1b:01:10:ae:f9:86:
                    e3:ea:07:64:17:3b:0e:eb:b9:5c:7e:39:3a:a1:fe:
                    95:0f:cb:c7:8e:8f:f9:62:aa:3c:27:de:19:35:9d:
                    0b:c1:c4:9b:df:b1:83:6d:eb:30:79:39:29:45:e1:
                    ba:aa:50:25:8f:9d:fb:19:9f:45:28:f9:2d:03:bb:
                    36:45:b6:d8:9c:30:b5:b2:6d:30:87:fb:4a:cc:a2:
                    93:1b:33:16:03:4a:38:c5:7a:45:cd:2e:58:ca:c3:
                    cf:42:55:f8:a0:4d:90:3b:df:76:74:3a:78:c0:32:
                    22:90:97:81:05:3e:d8:e3:1b:2f:b8:5a:47:32:15:
                    23:44:37:18:38:18:04:ef:20:79:81:f2:b2:33:8f:
                    6d:72:9e:84:3b:e6:f4:31:20:0b:12:32:c3:1f:26:
                    a2:01:cb:f2:6a:42:f5:24:cc:3a:1c:38:e9:a2:cf:
                    ed:87
                Exponent: 65537 (0x10001)
        X509v3 extensions:
            X509v3 Basic Constraints: 
                CA:FALSE
            X509v3 Key Usage: 
                Digital Signature, Non Repudiation, Key Encipherment
            X509v3 Subject Alternative Name: 
                DNS:fourfiftytwo.local
    Signature Algorithm: sha1WithRSAEncryption
         21:a9:5c:94:10:40:ff:fd:e4:77:cb:4e:d7:6a:01:7a:20:76:
         3d:58:6e:a2:bf:fe:b7:5c:14:1b:c3:7e:51:b8:32:7b:53:83:
         5f:56:83:13:9a:e9:86:55:3b:75:c7:1e:7e:02:2a:b3:f9:c0:
         c4:36:93:86:d9:8f:08:46:8e:2a:49:c0:b5:d3:b2:0d:61:73:
         73:01:34:a7:41:6b:96:ec:30:51:15:75:44:a3:5d:15:e4:30:
         e4:e8:4b:87:12:6b:b4:87:fe:c6:81:34:d6:65:4c:8e:e6:c6:
         5d:66:12:3c:d0:f2:0e:54:74:43:26:53:33:a8:15:e9:60:e9:
         a5:5b:60:8a:46:76:39:8e:95:6e:71:bb:e0:12:b1:29:03:55:
         17:d1:42:9c:0c:22:41:2e:fb:49:e1:38:0d:17:87:c8:ad:74:
         c4:82:31:25:12:18:43:a0:26:ec:87:c0:39:55:62:15:a5:36:
         46:aa:40:de:b7:8c:61:d8:bc:88:cb:ff:94:2d:d1:43:17:34:
         72:f4:6d:9e:db:8a:c7:1b:72:f7:da:2f:ff:25:63:61:43:a6:
         3f:64:e2:a6:51:65:6b:d5:f3:8a:ae:b6:e8:e0:a4:a8:49:c2:
         f7:15:4d:b7:c6:9b:7f:54:f1:46:f9:19:8e:3f:23:4d:a4:fc:
         27:f1:b8:0a
-----BEGIN CERTIFICATE-----
MIID9TCCAt2gAwIBAgICEAMwDQYJKoZIhvcNAQEFBQAwgaUxGTAXBgNVBAMMEDQ1
MiBDZXJ0aWZpY2F0ZXMxCzAJBgNVBAgMAkNBMQswCQYDVQQGEwJVUzErMCkGCSqG
SIb3DQEJARYcNDUycHJvamVjdEBjc3UuZnVsbGVydG9uLmVkdTEuMCwGA1UECgwl
Q2FsaWZvcm5pYSBTdGF0ZSBVbml2ZXJzaXR5IEZ1bGxlcnRvbjERMA8GA1UECwwI
Q1BTQyA0NTIwHhcNMjMwNTEyMDEwODMxWhcNMjgwNTEwMDEwODMxWjCBmTEbMBkG
A1UEAwwSZm91cmZpZnR5dHdvLmxvY2FsMQswCQYDVQQIDAJDQTELMAkGA1UEBhMC
VVMxJzAlBgkqhkiG9w0BCQEWGGFkbWluQGZvdXJmaWZ0eXR3by5sb2NhbDEXMBUG
A1UECgwORm91ciBGaWZ0eSBUd28xHjAcBgNVBAsMFUZvdXIgRmlmdHkgVHdvIEFw
YWNoZTCCASIwDQYJKoZIhvcNAQEBBQADggEPADCCAQoCggEBANeVlOKxWynsq1hn
Xdl1bHlMTjjWLclrl8mMLm5oq1M2jlU12I/mTO54QfQv10CYQxf8TNDRDZufLqcQ
c1UpD8fTG29wsOXHfEH8qop06pbp7tAWGwEQrvmG4+oHZBc7Duu5XH45OqH+lQ/L
x46P+WKqPCfeGTWdC8HEm9+xg23rMHk5KUXhuqpQJY+d+xmfRSj5LQO7NkW22Jww
tbJtMIf7SsyikxszFgNKOMV6Rc0uWMrDz0JV+KBNkDvfdnQ6eMAyIpCXgQU+2OMb
L7haRzIVI0Q3GDgYBO8geYHysjOPbXKehDvm9DEgCxIywx8mogHL8mpC9STMOhw4
6aLP7YcCAwEAAaM5MDcwCQYDVR0TBAIwADALBgNVHQ8EBAMCBeAwHQYDVR0RBBYw
FIISZm91cmZpZnR5dHdvLmxvY2FsMA0GCSqGSIb3DQEBBQUAA4IBAQAhqVyUEED/
/eR3y07XagF6IHY9WG6iv/63XBQbw35RuDJ7U4NfVoMTmumGVTt1xx5+Aiqz+cDE
NpOG2Y8IRo4qScC107INYXNzATSnQWuW7DBRFXVEo10V5DDk6EuHEmu0h/7GgTTW
ZUyO5sZdZhI80PIOVHRDJlMzqBXpYOmlW2CKRnY5jpVucbvgErEpA1UX0UKcDCJB
LvtJ4TgNF4fIrXTEgjElEhhDoCbsh8A5VWIVpTZGqkDet4xh2LyIy/+ULdFDFzRy
9G2e24rHG3L32i//JWNhQ6Y/ZOKmUWVr1fOKrrbo4KSoScL3FU23xpt/VPFG+RmO
PyNNpPwn8bgK
-----END CERTIFICATE-----
