Certificate:
    Data:
        Version: 3 (0x2)
        Serial Number: 4100 (0x1004)
        Signature Algorithm: sha256WithRSAEncryption
        Issuer: CN=452 Certificates, ST=CA, C=US/emailAddress=452project@csu.fullerton.edu, O=California State University Fullerton, OU=CPSC 452
        Validity
            Not Before: May 22 23:27:15 2023 GMT
            Not After : May 20 23:27:15 2028 GMT
        Subject: CN=452 Certificates, ST=CA, C=US/emailAddress=452project@csu.fullerton.edu, O=California State University Fullerton, OU=CPSC 452
        Subject Public Key Info:
            Public Key Algorithm: rsaEncryption
                RSA Public-Key: (2048 bit)
                Modulus:
                    00:cb:61:7f:84:f2:91:28:5e:69:25:b2:03:22:2b:
                    ae:84:91:21:9e:ca:94:4c:20:25:81:29:02:67:07:
                    c8:3f:9e:3f:ec:f2:f8:55:6b:da:5a:3b:b6:71:84:
                    f7:c0:a4:9e:2a:f2:1a:e9:8f:28:71:46:4e:e9:fb:
                    1e:d3:06:b6:f6:ac:91:8b:bf:e7:94:89:29:eb:16:
                    59:69:70:27:9b:e8:1c:fd:46:cd:55:c4:3f:dd:a5:
                    c2:4a:ec:c3:a2:75:f7:f5:18:60:f1:ab:c0:60:04:
                    9f:a3:2b:36:98:91:f1:26:87:79:f6:ac:f8:5a:96:
                    c7:c4:6b:b2:24:da:21:16:bc:f3:8d:c8:84:1c:40:
                    9c:ae:cb:70:f1:24:5f:8a:80:a2:ca:46:82:d9:60:
                    54:d0:0b:4d:82:05:a8:a8:02:fb:c6:45:61:11:16:
                    ac:16:83:48:c1:e6:ce:8d:5e:a7:7b:cc:4b:8d:27:
                    7b:ed:be:62:c2:19:20:67:2a:e6:53:9e:74:45:dd:
                    35:a1:34:11:59:c6:c9:5e:b5:e1:22:ba:86:e9:36:
                    27:29:6a:b4:ef:52:e7:93:bf:f7:b5:60:e0:c7:28:
                    c1:1a:2e:ed:ed:1e:e2:21:c3:ed:66:dd:4f:42:9f:
                    84:9f:9f:2c:15:81:aa:fb:70:48:23:ce:cf:2a:c0:
                    a7:d1
                Exponent: 65537 (0x10001)
        X509v3 extensions:
            X509v3 Basic Constraints: 
                CA:FALSE
    Signature Algorithm: sha256WithRSAEncryption
         a1:86:c3:af:43:71:22:90:bd:15:3a:55:11:d7:39:5c:37:d1:
         98:4b:32:71:7d:0c:5f:5f:e0:32:21:ac:1e:ba:2c:cc:b4:87:
         49:78:a5:7e:f7:65:9d:ec:01:6c:6a:70:5d:1a:2e:05:63:6a:
         b9:bf:e4:03:96:93:be:eb:84:56:f1:d7:0a:1e:e2:69:f2:de:
         7c:ec:72:ae:6b:26:b6:0a:af:b5:6e:79:ff:1c:d3:11:04:95:
         53:bf:76:3f:e5:e4:de:3b:71:10:5e:6f:7e:58:77:4f:69:1b:
         34:26:91:ff:fa:c9:a0:3b:be:f1:35:47:c6:1f:01:0d:ba:90:
         6c:f0:4b:01:36:22:60:8a:08:67:30:5b:41:da:1c:3a:f6:07:
         2d:c5:e1:ff:8e:e2:d7:c4:cd:ca:3f:ac:24:02:68:21:81:0f:
         b3:1b:d2:2e:d9:65:04:da:c6:b2:3d:d3:48:bd:29:5d:68:9f:
         b3:0f:02:28:b3:58:00:b8:70:ec:14:06:cd:0b:99:a4:c7:64:
         09:1b:ad:2a:f2:ed:0c:a9:4e:8b:76:b9:24:19:4b:42:19:ba:
         f5:d4:e5:b2:e6:8b:01:3c:49:e6:a6:64:2f:ce:fc:0b:e4:13:
         e6:8a:ff:64:31:47:1e:14:6e:00:05:07:4a:74:d8:3c:bd:4f:
         10:52:60:37
-----BEGIN CERTIFICATE-----
MIID1TCCAr2gAwIBAgICEAQwDQYJKoZIhvcNAQELBQAwgaUxGTAXBgNVBAMMEDQ1
MiBDZXJ0aWZpY2F0ZXMxCzAJBgNVBAgMAkNBMQswCQYDVQQGEwJVUzErMCkGCSqG
SIb3DQEJARYcNDUycHJvamVjdEBjc3UuZnVsbGVydG9uLmVkdTEuMCwGA1UECgwl
Q2FsaWZvcm5pYSBTdGF0ZSBVbml2ZXJzaXR5IEZ1bGxlcnRvbjERMA8GA1UECwwI
Q1BTQyA0NTIwHhcNMjMwNTIyMjMyNzE1WhcNMjgwNTIwMjMyNzE1WjCBpTEZMBcG
A1UEAwwQNDUyIENlcnRpZmljYXRlczELMAkGA1UECAwCQ0ExCzAJBgNVBAYTAlVT
MSswKQYJKoZIhvcNAQkBFhw0NTJwcm9qZWN0QGNzdS5mdWxsZXJ0b24uZWR1MS4w
LAYDVQQKDCVDYWxpZm9ybmlhIFN0YXRlIFVuaXZlcnNpdHkgRnVsbGVydG9uMREw
DwYDVQQLDAhDUFNDIDQ1MjCCASIwDQYJKoZIhvcNAQEBBQADggEPADCCAQoCggEB
AMthf4TykSheaSWyAyIrroSRIZ7KlEwgJYEpAmcHyD+eP+zy+FVr2lo7tnGE98Ck
niryGumPKHFGTun7HtMGtvaskYu/55SJKesWWWlwJ5voHP1GzVXEP92lwkrsw6J1
9/UYYPGrwGAEn6MrNpiR8SaHefas+FqWx8RrsiTaIRa8843IhBxAnK7LcPEkX4qA
ospGgtlgVNALTYIFqKgC+8ZFYREWrBaDSMHmzo1ep3vMS40ne+2+YsIZIGcq5lOe
dEXdNaE0EVnGyV614SK6huk2JylqtO9S55O/97Vg4McowRou7e0e4iHD7WbdT0Kf
hJ+fLBWBqvtwSCPOzyrAp9ECAwEAAaMNMAswCQYDVR0TBAIwADANBgkqhkiG9w0B
AQsFAAOCAQEAoYbDr0NxIpC9FTpVEdc5XDfRmEsycX0MX1/gMiGsHroszLSHSXil
fvdlnewBbGpwXRouBWNqub/kA5aTvuuEVvHXCh7iafLefOxyrmsmtgqvtW55/xzT
EQSVU792P+Xk3jtxEF5vflh3T2kbNCaR//rJoDu+8TVHxh8BDbqQbPBLATYiYIoI
ZzBbQdocOvYHLcXh/47i18TNyj+sJAJoIYEPsxvSLtllBNrGsj3TSL0pXWifsw8C
KLNYALhw7BQGzQuZpMdkCRutKvLtDKlOi3a5JBlLQhm69dTlsuaLATxJ5qZkL878
C+QT5or/ZDFHHhRuAAUHSnTYPL1PEFJgNw==
-----END CERTIFICATE-----
