Certificate:
    Data:
        Version: 3 (0x2)
        Serial Number: 4101 (0x1005)
        Signature Algorithm: sha256WithRSAEncryption
        Issuer: CN=452 Certificates, ST=CA, C=US/emailAddress=452project@csu.fullerton.edu, O=California State University Fullerton, OU=CPSC 452
        Validity
            Not Before: May 22 23:54:57 2023 GMT
            Not After : May 20 23:54:57 2028 GMT
        Subject: CN=fourfiftytwo.local, ST=CA, C=US/emailAddress=admin@fourfiftytwo.local, O=Four Fifty Two, OU=Four Fifty Two Apache
        Subject Public Key Info:
            Public Key Algorithm: rsaEncryption
                RSA Public-Key: (2048 bit)
                Modulus:
                    00:c3:e6:60:50:bc:77:4c:70:1d:21:11:77:bf:03:
                    84:39:de:6c:27:d4:24:af:1d:18:97:fa:70:7e:b8:
                    79:6f:3f:db:1b:b6:39:be:ba:de:f2:1c:3f:8f:b5:
                    44:a7:8c:d9:22:96:f5:d0:91:97:ea:b6:c4:20:3c:
                    60:17:f5:a6:51:36:24:34:fd:72:39:b1:e9:0a:e2:
                    d2:1d:23:40:76:28:b7:d2:ab:1c:1c:7e:78:e5:dc:
                    fa:b4:22:f0:96:ce:f1:da:d7:97:5d:11:b7:30:1c:
                    dd:28:ba:39:c2:be:5f:4f:a1:ca:e7:66:59:ee:c7:
                    ea:47:69:93:41:a2:b8:e0:94:62:3e:3f:ad:ff:27:
                    30:4c:1d:ee:bc:eb:ae:7a:22:39:ed:40:4b:72:d0:
                    19:b7:2f:a3:d0:4b:99:e6:6c:18:26:c7:80:b3:c6:
                    01:5c:2a:8d:83:4c:24:c1:62:8d:d5:39:a5:6a:c7:
                    ff:48:ce:e4:fd:6b:57:fd:c1:53:d5:54:cc:3b:eb:
                    b8:ff:b4:26:67:dd:15:8e:34:5e:30:c1:d5:2f:f9:
                    31:11:6d:f5:c4:4c:3e:4c:8b:f5:85:15:82:29:12:
                    49:3a:f4:98:87:b2:fd:af:f0:65:39:56:e1:03:31:
                    c6:43:a1:9c:de:30:6d:ca:09:06:39:f2:03:6f:ef:
                    59:b1
                Exponent: 65537 (0x10001)
        X509v3 extensions:
            X509v3 Basic Constraints: 
                CA:FALSE
            X509v3 Key Usage: 
                Digital Signature, Non Repudiation, Key Encipherment
            X509v3 Subject Alternative Name: 
                DNS:fourfiftytwo.local
    Signature Algorithm: sha256WithRSAEncryption
         29:6a:8c:ba:6c:b7:dd:57:9d:89:3b:bc:b4:e2:58:36:f7:8a:
         74:37:90:15:cf:bf:a8:89:79:30:ea:4b:0e:88:c6:88:1f:66:
         6b:3b:b9:fa:0e:60:bb:23:32:51:b9:f1:7e:78:7b:a0:b6:9c:
         12:8d:b8:32:f5:4c:f6:7b:ea:fa:ea:cb:ef:20:ab:00:18:e5:
         2d:14:86:f2:5f:56:50:39:04:b1:3d:db:d6:d9:6c:6b:66:15:
         1d:61:34:f9:4d:2b:ba:ce:b2:d7:5f:b1:fa:44:57:46:a8:79:
         67:eb:75:a5:77:d2:48:2c:41:37:a0:46:a2:cb:d2:76:ca:02:
         95:e7:c9:e7:9c:59:8d:0d:8c:53:a9:84:95:be:c2:a4:aa:74:
         ba:ac:bd:10:40:63:4f:ae:ac:58:c3:a7:62:ed:70:39:f9:84:
         bd:f3:be:0a:47:9f:35:60:f1:9b:35:b6:d3:ab:23:ac:44:cb:
         cc:41:db:af:d4:99:6d:bd:85:3e:53:fc:fe:ba:79:d3:27:e5:
         6a:0c:77:91:4e:81:4e:6a:22:66:1c:f8:25:6d:a1:48:5b:40:
         a4:dd:4b:ff:6c:64:44:5e:c4:59:7d:ac:8c:b4:2e:a7:cd:f8:
         fb:c5:5d:06:17:b4:9f:fc:56:56:a9:aa:ea:72:f4:37:91:d9:
         42:90:e9:ee
-----BEGIN CERTIFICATE-----
MIID9TCCAt2gAwIBAgICEAUwDQYJKoZIhvcNAQELBQAwgaUxGTAXBgNVBAMMEDQ1
MiBDZXJ0aWZpY2F0ZXMxCzAJBgNVBAgMAkNBMQswCQYDVQQGEwJVUzErMCkGCSqG
SIb3DQEJARYcNDUycHJvamVjdEBjc3UuZnVsbGVydG9uLmVkdTEuMCwGA1UECgwl
Q2FsaWZvcm5pYSBTdGF0ZSBVbml2ZXJzaXR5IEZ1bGxlcnRvbjERMA8GA1UECwwI
Q1BTQyA0NTIwHhcNMjMwNTIyMjM1NDU3WhcNMjgwNTIwMjM1NDU3WjCBmTEbMBkG
A1UEAwwSZm91cmZpZnR5dHdvLmxvY2FsMQswCQYDVQQIDAJDQTELMAkGA1UEBhMC
VVMxJzAlBgkqhkiG9w0BCQEWGGFkbWluQGZvdXJmaWZ0eXR3by5sb2NhbDEXMBUG
A1UECgwORm91ciBGaWZ0eSBUd28xHjAcBgNVBAsMFUZvdXIgRmlmdHkgVHdvIEFw
YWNoZTCCASIwDQYJKoZIhvcNAQEBBQADggEPADCCAQoCggEBAMPmYFC8d0xwHSER
d78DhDnebCfUJK8dGJf6cH64eW8/2xu2Ob663vIcP4+1RKeM2SKW9dCRl+q2xCA8
YBf1plE2JDT9cjmx6Qri0h0jQHYot9KrHBx+eOXc+rQi8JbO8drXl10RtzAc3Si6
OcK+X0+hyudmWe7H6kdpk0GiuOCUYj4/rf8nMEwd7rzrrnoiOe1AS3LQGbcvo9BL
meZsGCbHgLPGAVwqjYNMJMFijdU5pWrH/0jO5P1rV/3BU9VUzDvruP+0JmfdFY40
XjDB1S/5MRFt9cRMPkyL9YUVgikSSTr0mIey/a/wZTlW4QMxxkOhnN4wbcoJBjny
A2/vWbECAwEAAaM5MDcwCQYDVR0TBAIwADALBgNVHQ8EBAMCBeAwHQYDVR0RBBYw
FIISZm91cmZpZnR5dHdvLmxvY2FsMA0GCSqGSIb3DQEBCwUAA4IBAQApaoy6bLfd
V52JO7y04lg294p0N5AVz7+oiXkw6ksOiMaIH2ZrO7n6DmC7IzJRufF+eHugtpwS
jbgy9Uz2e+r66svvIKsAGOUtFIbyX1ZQOQSxPdvW2WxrZhUdYTT5TSu6zrLXX7H6
RFdGqHln63Wld9JILEE3oEaiy9J2ygKV58nnnFmNDYxTqYSVvsKkqnS6rL0QQGNP
rqxYw6di7XA5+YS9874KR581YPGbNbbTqyOsRMvMQduv1JltvYU+U/z+unnTJ+Vq
DHeRToFOaiJmHPglbaFIW0Ck3Uv/bGREXsRZfayMtC6nzfj7xV0GF7Sf/FZWqarq
cvQ3kdlCkOnu
-----END CERTIFICATE-----
