Certificate:
    Data:
        Version: 3 (0x2)
        Serial Number: 4097 (0x1001)
        Signature Algorithm: sha1WithRSAEncryption
        Issuer: CN=452 Certificates, ST=CA, C=US/emailAddress=452project@csu.fullerton.edu, O=California State University Fullerton, OU=CPSC 452
        Validity
            Not Before: May 11 01:03:16 2023 GMT
            Not After : May  9 01:03:16 2028 GMT
        Subject: CN=fourfiftytwo.local, ST=CA, C=US/emailAddress=admin@fourfiftytwo.local, O=Four Fifty Two, OU=Four Fifty Two IIS
        Subject Public Key Info:
            Public Key Algorithm: rsaEncryption
                RSA Public-Key: (1024 bit)
                Modulus:
                    00:b0:44:f7:5a:ef:da:0e:0b:42:be:3c:90:48:be:
                    f2:6c:d8:e4:d7:eb:32:35:10:7d:e9:dd:fb:94:a3:
                    4c:97:49:1b:7f:50:d3:0f:b5:de:9f:16:a7:ca:2f:
                    8e:ee:36:5f:67:5b:b8:9e:f7:2b:80:32:e3:38:c4:
                    94:7a:c9:fb:3c:14:7a:77:6f:bc:d1:86:38:75:b2:
                    d0:2b:2c:87:39:55:bc:dd:9a:d0:13:01:ed:2e:45:
                    e0:e8:34:c1:bf:1d:85:d2:7b:4d:3e:6b:59:53:98:
                    1f:2c:3e:11:84:56:1d:70:9f:07:e6:8c:ee:5f:32:
                    f2:c6:c7:45:76:c3:23:a1:29
                Exponent: 65537 (0x10001)
        X509v3 extensions:
            X509v3 Basic Constraints: 
                CA:FALSE
            X509v3 Key Usage: 
                Digital Signature, Non Repudiation, Key Encipherment
            X509v3 Subject Alternative Name: 
                DNS:fourfiftytwo.local
    Signature Algorithm: sha1WithRSAEncryption
         65:74:e3:7c:a5:8e:f1:76:0c:02:d0:83:5c:c7:76:d5:ef:12:
         01:da:fc:eb:db:83:b1:9e:9a:55:75:89:20:b7:66:e4:9a:78:
         96:7f:c9:55:fa:0b:25:47:fb:eb:41:ef:91:41:5f:fe:54:25:
         41:91:05:b3:19:94:89:4b:56:c0:6f:b4:87:91:a7:a2:25:3e:
         1e:96:73:5b:5a:c3:4a:90:02:24:59:7c:4f:67:3a:05:c0:67:
         7e:2e:50:e3:51:28:b2:43:50:eb:f0:f0:5b:ce:c7:cb:16:5e:
         be:62:bd:a7:7a:76:1d:39:e9:63:b3:12:09:ec:28:1c:0c:d1:
         13:26:6c:94:7b:6a:6c:2f:d4:26:29:7a:94:32:06:5d:f9:1a:
         fe:a8:ab:8b:d0:e3:05:38:5a:2d:e1:1f:11:69:2e:e4:23:2b:
         64:68:4e:92:c4:98:46:94:8e:49:ea:40:d7:b1:4d:f7:4b:a4:
         5c:c8:7f:5e:f8:4c:8d:ab:f6:d5:7c:48:89:2c:3d:93:19:0a:
         0e:74:30:57:39:14:47:32:e0:1e:cc:2e:75:84:7e:f3:a3:98:
         55:ed:b1:95:a3:06:db:e8:e7:7c:49:ab:e0:c0:08:9e:0e:10:
         71:c1:31:b3:6f:c8:9e:86:6a:48:92:66:71:8f:17:fb:45:96:
         b2:72:05:ec
-----BEGIN CERTIFICATE-----
MIIDbjCCAlagAwIBAgICEAEwDQYJKoZIhvcNAQEFBQAwgaUxGTAXBgNVBAMMEDQ1
MiBDZXJ0aWZpY2F0ZXMxCzAJBgNVBAgMAkNBMQswCQYDVQQGEwJVUzErMCkGCSqG
SIb3DQEJARYcNDUycHJvamVjdEBjc3UuZnVsbGVydG9uLmVkdTEuMCwGA1UECgwl
Q2FsaWZvcm5pYSBTdGF0ZSBVbml2ZXJzaXR5IEZ1bGxlcnRvbjERMA8GA1UECwwI
Q1BTQyA0NTIwHhcNMjMwNTExMDEwMzE2WhcNMjgwNTA5MDEwMzE2WjCBljEbMBkG
A1UEAwwSZm91cmZpZnR5dHdvLmxvY2FsMQswCQYDVQQIDAJDQTELMAkGA1UEBhMC
VVMxJzAlBgkqhkiG9w0BCQEWGGFkbWluQGZvdXJmaWZ0eXR3by5sb2NhbDEXMBUG
A1UECgwORm91ciBGaWZ0eSBUd28xGzAZBgNVBAsMEkZvdXIgRmlmdHkgVHdvIElJ
UzCBnzANBgkqhkiG9w0BAQEFAAOBjQAwgYkCgYEAsET3Wu/aDgtCvjyQSL7ybNjk
1+syNRB96d37lKNMl0kbf1DTD7Xenxanyi+O7jZfZ1u4nvcrgDLjOMSUesn7PBR6
d2+80YY4dbLQKyyHOVW83ZrQEwHtLkXg6DTBvx2F0ntNPmtZU5gfLD4RhFYdcJ8H
5ozuXzLyxsdFdsMjoSkCAwEAAaM5MDcwCQYDVR0TBAIwADALBgNVHQ8EBAMCBeAw
HQYDVR0RBBYwFIISZm91cmZpZnR5dHdvLmxvY2FsMA0GCSqGSIb3DQEBBQUAA4IB
AQBldON8pY7xdgwC0INcx3bV7xIB2vzr24OxnppVdYkgt2bkmniWf8lV+gslR/vr
Qe+RQV/+VCVBkQWzGZSJS1bAb7SHkaeiJT4elnNbWsNKkAIkWXxPZzoFwGd+LlDj
USiyQ1Dr8PBbzsfLFl6+Yr2nenYdOeljsxIJ7CgcDNETJmyUe2psL9QmKXqUMgZd
+Rr+qKuL0OMFOFot4R8RaS7kIytkaE6SxJhGlI5J6kDXsU33S6RcyH9e+EyNq/bV
fEiJLD2TGQoOdDBXORRHMuAezC51hH7zo5hV7bGVowbb6Od8SavgwAieDhBxwTGz
b8iehmpIkmZxjxf7RZaycgXs
-----END CERTIFICATE-----
