Certificate:
    Data:
        Version: 3 (0x2)
        Serial Number: 4098 (0x1002)
        Signature Algorithm: sha1WithRSAEncryption
        Issuer: CN=452 Certificates, ST=CA, C=US/emailAddress=452project@csu.fullerton.edu, O=California State University Fullerton, OU=CPSC 452
        Validity
            Not Before: May 11 01:03:34 2023 GMT
            Not After : May  9 01:03:34 2028 GMT
        Subject: CN=fourfiftytwo.local, ST=CA, C=US/emailAddress=admin@fourfiftytwo.local, O=Four Fifty Two, OU=Four Fifty Two Node
        Subject Public Key Info:
            Public Key Algorithm: rsaEncryption
                RSA Public-Key: (1024 bit)
                Modulus:
                    00:e9:7b:41:94:06:47:e5:e3:76:9d:04:73:48:eb:
                    e4:a7:1b:80:cc:ee:69:5d:72:c9:86:58:73:54:d8:
                    ab:02:2a:62:73:1c:5a:43:d5:01:07:61:58:7a:20:
                    d9:ef:09:b2:c2:b0:01:75:a8:f8:f3:a6:b7:7e:ea:
                    b0:42:f2:52:76:0c:12:d1:64:16:e0:da:3c:5e:5e:
                    a7:61:5f:ed:40:b2:4b:a2:70:fa:8c:5d:13:9f:16:
                    61:51:ad:ba:60:97:b4:1c:16:74:cf:d9:c6:2f:e6:
                    71:d9:57:93:60:8a:a5:c6:60:44:a6:54:0c:28:af:
                    86:48:27:08:4f:a7:bc:07:4d
                Exponent: 65537 (0x10001)
        X509v3 extensions:
            X509v3 Basic Constraints: 
                CA:FALSE
            X509v3 Key Usage: 
                Digital Signature, Non Repudiation, Key Encipherment
            X509v3 Subject Alternative Name: 
                DNS:fourfiftytwo.local
    Signature Algorithm: sha1WithRSAEncryption
         19:49:f8:d4:ea:9c:59:02:15:02:70:25:e0:f3:a9:04:bc:45:
         85:42:0a:a4:17:c6:99:76:a7:7b:a3:8f:b5:95:9a:eb:fc:87:
         69:b3:3c:01:da:59:ad:7b:5b:50:dd:e3:97:7d:fa:74:50:71:
         36:8f:d4:dd:cc:57:8c:c9:1d:2b:32:43:cc:3b:32:80:96:24:
         d3:e6:fa:f3:bc:b4:af:a9:e6:80:44:b0:a1:6a:34:e0:50:8b:
         d1:0d:8e:ec:3c:8d:da:a5:4d:98:f6:3c:b3:ab:5c:6b:04:1e:
         ab:c7:32:72:d3:9a:71:67:cd:9f:6c:00:37:1c:d5:6a:55:0e:
         cd:59:3c:31:3a:3b:a4:07:09:21:8e:08:8f:64:0f:79:ba:ff:
         db:6d:cd:92:38:32:c8:8d:44:59:b0:8b:ea:c3:38:ef:33:73:
         d4:af:80:16:4c:4d:e4:75:71:f2:90:e6:e5:4b:4f:f9:6c:c7:
         8e:19:53:19:57:cb:ed:51:f4:3d:9a:5e:66:86:74:10:e2:0e:
         77:82:24:11:c9:40:cc:78:93:81:0d:86:d1:21:8c:17:bb:d9:
         05:38:04:a6:87:64:7e:59:6e:bc:e6:cc:52:a2:1a:3c:25:0d:
         74:66:74:43:5e:13:f9:60:ff:7b:af:83:c2:8c:43:08:6c:ff:
         09:75:07:a6
-----BEGIN CERTIFICATE-----
MIIDbzCCAlegAwIBAgICEAIwDQYJKoZIhvcNAQEFBQAwgaUxGTAXBgNVBAMMEDQ1
MiBDZXJ0aWZpY2F0ZXMxCzAJBgNVBAgMAkNBMQswCQYDVQQGEwJVUzErMCkGCSqG
SIb3DQEJARYcNDUycHJvamVjdEBjc3UuZnVsbGVydG9uLmVkdTEuMCwGA1UECgwl
Q2FsaWZvcm5pYSBTdGF0ZSBVbml2ZXJzaXR5IEZ1bGxlcnRvbjERMA8GA1UECwwI
Q1BTQyA0NTIwHhcNMjMwNTExMDEwMzM0WhcNMjgwNTA5MDEwMzM0WjCBlzEbMBkG
A1UEAwwSZm91cmZpZnR5dHdvLmxvY2FsMQswCQYDVQQIDAJDQTELMAkGA1UEBhMC
VVMxJzAlBgkqhkiG9w0BCQEWGGFkbWluQGZvdXJmaWZ0eXR3by5sb2NhbDEXMBUG
A1UECgwORm91ciBGaWZ0eSBUd28xHDAaBgNVBAsME0ZvdXIgRmlmdHkgVHdvIE5v
ZGUwgZ8wDQYJKoZIhvcNAQEBBQADgY0AMIGJAoGBAOl7QZQGR+Xjdp0Ec0jr5Kcb
gMzuaV1yyYZYc1TYqwIqYnMcWkPVAQdhWHog2e8JssKwAXWo+POmt37qsELyUnYM
EtFkFuDaPF5ep2Ff7UCyS6Jw+oxdE58WYVGtumCXtBwWdM/Zxi/mcdlXk2CKpcZg
RKZUDCivhkgnCE+nvAdNAgMBAAGjOTA3MAkGA1UdEwQCMAAwCwYDVR0PBAQDAgXg
MB0GA1UdEQQWMBSCEmZvdXJmaWZ0eXR3by5sb2NhbDANBgkqhkiG9w0BAQUFAAOC
AQEAGUn41OqcWQIVAnAl4POpBLxFhUIKpBfGmXane6OPtZWa6/yHabM8AdpZrXtb
UN3jl336dFBxNo/U3cxXjMkdKzJDzDsygJYk0+b687y0r6nmgESwoWo04FCL0Q2O
7DyN2qVNmPY8s6tcawQeq8cyctOacWfNn2wANxzValUOzVk8MTo7pAcJIY4Ij2QP
ebr/223NkjgyyI1EWbCL6sM47zNz1K+AFkxN5HVx8pDm5UtP+WzHjhlTGVfL7VH0
PZpeZoZ0EOIOd4IkEclAzHiTgQ2G0SGMF7vZBTgEpodkflluvObMUqIaPCUNdGZ0
Q14T+WD/e6+DwoxDCGz/CXUHpg==
-----END CERTIFICATE-----
